target datalayout = "e-m:e-p270:32:32-p271:32:32-p272:64:64-i64:64-i128:128-f80:128-n8:16:32:64-S128"
target triple = "x86_64-pc-linux-gnu"

%class.Node.base = type <{ ptr, ptr, ptr, i32, i32, i32, i32, i32, i32, i32 }>
%class.Node = type <{ ptr, ptr, ptr, i32, i32, i32, i32, i32, i32, i32, [4 x i8] }>
%class.BoolNode = type { %class.Node.base, %struct.BoolTest }
%struct.BoolTest = type { i32 }

; Function Attrs: mustprogress nounwind uwtable
define linkonce_odr hidden noundef zeroext i1 @_ZNK4Node13is_RangeCheckEv(ptr noundef nonnull align 8 dereferenceable(52) %0) #1 comdat align 2 {
  %2 = alloca ptr, align 8
  store ptr %0, ptr %2, align 8
  %3 = load ptr, ptr %2, align 8
  %4 = getelementptr inbounds %class.Node, ptr %3, i32 0, i32 8
  %5 = load i32, ptr %4, align 4
  %6 = and i32 %5, 127
  %7 = icmp eq i32 %6, 85
  ret i1 %7
}

; Function Attrs: mustprogress nounwind uwtable
define linkonce_odr hidden noundef zeroext i1 @_ZNK4Node6is_topEv(ptr noundef nonnull align 8 dereferenceable(52) %0) #1 comdat align 2 {
  %2 = alloca ptr, align 8
  store ptr %0, ptr %2, align 8
  %3 = load ptr, ptr %2, align 8
  %4 = getelementptr inbounds %class.Node, ptr %3, i32 0, i32 2
  %5 = load ptr, ptr %4, align 8
  %6 = icmp eq ptr %5, null
  ret i1 %6
}

; Function Attrs: mustprogress nounwind uwtable
define linkonce_odr hidden noundef ptr @_ZNK4Node7as_BoolEv(ptr noundef nonnull align 8 dereferenceable(52) %0) #1 comdat align 2 {
  %2 = alloca ptr, align 8
  store ptr %0, ptr %2, align 8
  %3 = load ptr, ptr %2, align 8
  ret ptr %3
}

; Function Attrs: mustprogress nounwind uwtable
define linkonce_odr hidden noundef zeroext i1 @_ZNK4Node7is_BoolEv(ptr noundef nonnull align 8 dereferenceable(52) %0) #1 comdat align 2 {
  %2 = alloca ptr, align 8
  store ptr %0, ptr %2, align 8
  %3 = load ptr, ptr %2, align 8
  %4 = getelementptr inbounds %class.Node, ptr %3, i32 0, i32 8
  %5 = load i32, ptr %4, align 4
  %6 = and i32 %5, 511
  %7 = icmp eq i32 %6, 256
  ret i1 %7
}

; Function Attrs: mustprogress nounwind uwtable
define linkonce_odr hidden noundef ptr @_ZNK4Node2inEj(ptr noundef nonnull align 8 dereferenceable(52) %0, i32 noundef %1) #1 comdat align 2 {
  %3 = alloca ptr, align 8
  %4 = alloca i32, align 4
  store ptr %0, ptr %3, align 8
  store i32 %1, ptr %4, align 4
  %5 = load ptr, ptr %3, align 8
  %6 = getelementptr inbounds %class.Node, ptr %5, i32 0, i32 1
  %7 = load ptr, ptr %6, align 8
  %8 = load i32, ptr %4, align 4
  %9 = zext i32 %8 to i64
  %10 = getelementptr inbounds ptr, ptr %7, i64 %9
  %11 = load ptr, ptr %10, align 8
  ret ptr %11
}

; Function Attrs: mustprogress nounwind uwtable
define linkonce_odr hidden noundef i32 @_ZNK4Node6outcntEv(ptr noundef nonnull align 8 dereferenceable(52) %0) #1 comdat align 2 {
  %2 = alloca ptr, align 8
  store ptr %0, ptr %2, align 8
  %3 = load ptr, ptr %2, align 8
  %4 = getelementptr inbounds %class.Node, ptr %3, i32 0, i32 5
  %5 = load i32, ptr %4, align 8
  ret i32 %5
}

; Function Attrs: mustprogress nounwind uwtable
define hidden noundef ptr @_ZN6IfNode21range_check_trap_projERiRP4NodeS3_(ptr noundef nonnull align 8 dereferenceable(60) %0, ptr noundef nonnull align 4 dereferenceable(4) %1, ptr noundef nonnull align 8 dereferenceable(8) %2, ptr noundef nonnull align 8 dereferenceable(8) %3) #1 align 2 {
  %5 = alloca ptr, align 8
  %6 = alloca ptr, align 8
  %7 = alloca ptr, align 8
  %8 = alloca ptr, align 8
  %9 = alloca ptr, align 8
  %10 = alloca ptr, align 8
  %11 = alloca ptr, align 8
  %12 = alloca ptr, align 8
  %13 = alloca ptr, align 8
  store ptr %0, ptr %6, align 8
  store ptr %1, ptr %7, align 8
  store ptr %2, ptr %8, align 8
  store ptr %3, ptr %9, align 8
  %14 = load ptr, ptr %6, align 8
  %15 = call noundef i32 @_ZNK4Node6outcntEv(ptr noundef nonnull align 8 dereferenceable(52) %14)
  %16 = icmp ne i32 %15, 2
  br i1 %16, label %17, label %18

17:                                               ; preds = %4
  store ptr null, ptr %5, align 8
  br label %95

18:                                               ; preds = %4
  %19 = call noundef ptr @_ZNK4Node2inEj(ptr noundef nonnull align 8 dereferenceable(52) %14, i32 noundef 1)
  store ptr %19, ptr %10, align 8
  %20 = load ptr, ptr %10, align 8
  %21 = icmp eq ptr %20, null
  br i1 %21, label %25, label %22

22:                                               ; preds = %18
  %23 = load ptr, ptr %10, align 8
  %24 = call noundef zeroext i1 @_ZNK4Node7is_BoolEv(ptr noundef nonnull align 8 dereferenceable(52) %23)
  br i1 %24, label %26, label %25

25:                                               ; preds = %22, %18
  store ptr null, ptr %5, align 8
  br label %95

26:                                               ; preds = %22
  %27 = load ptr, ptr %10, align 8
  %28 = call noundef ptr @_ZNK4Node7as_BoolEv(ptr noundef nonnull align 8 dereferenceable(52) %27)
  store ptr %28, ptr %11, align 8
  %29 = load ptr, ptr %11, align 8
  %30 = call noundef ptr @_ZNK4Node2inEj(ptr noundef nonnull align 8 dereferenceable(52) %29, i32 noundef 1)
  store ptr %30, ptr %12, align 8
  %31 = load ptr, ptr %12, align 8
  %32 = icmp eq ptr %31, null
  br i1 %32, label %33, label %34

33:                                               ; preds = %26
  store ptr null, ptr %5, align 8
  br label %95

34:                                               ; preds = %26
  %35 = load ptr, ptr %12, align 8
  %36 = load ptr, ptr %35, align 8
  %37 = getelementptr inbounds ptr, ptr %36, i64 0
  %38 = load ptr, ptr %37, align 8
  %39 = call noundef i32 %38(ptr noundef nonnull align 8 dereferenceable(52) %35)
  %40 = icmp ne i32 %39, 86
  br i1 %40, label %41, label %42

41:                                               ; preds = %34
  store ptr null, ptr %5, align 8
  br label %95

42:                                               ; preds = %34
  %43 = load ptr, ptr %12, align 8
  %44 = call noundef ptr @_ZNK4Node2inEj(ptr noundef nonnull align 8 dereferenceable(52) %43, i32 noundef 1)
  %45 = load ptr, ptr %8, align 8
  store ptr %44, ptr %45, align 8
  %46 = load ptr, ptr %12, align 8
  %47 = call noundef ptr @_ZNK4Node2inEj(ptr noundef nonnull align 8 dereferenceable(52) %46, i32 noundef 2)
  %48 = load ptr, ptr %9, align 8
  store ptr %47, ptr %48, align 8
  %49 = load ptr, ptr %7, align 8
  store i32 1, ptr %49, align 4
  %50 = load ptr, ptr %11, align 8
  %51 = getelementptr inbounds %class.BoolNode, ptr %50, i32 0, i32 1
  %52 = getelementptr inbounds %struct.BoolTest, ptr %51, i32 0, i32 0
  %53 = load i32, ptr %52, align 4
  %54 = icmp eq i32 %53, 5
  br i1 %54, label %55, label %63

55:                                               ; preds = %42
  %56 = load ptr, ptr %12, align 8
  %57 = call noundef ptr @_ZNK4Node2inEj(ptr noundef nonnull align 8 dereferenceable(52) %56, i32 noundef 2)
  %58 = load ptr, ptr %8, align 8
  store ptr %57, ptr %58, align 8
  %59 = load ptr, ptr %12, align 8
  %60 = call noundef ptr @_ZNK4Node2inEj(ptr noundef nonnull align 8 dereferenceable(52) %59, i32 noundef 1)
  %61 = load ptr, ptr %9, align 8
  store ptr %60, ptr %61, align 8
  %62 = load ptr, ptr %7, align 8
  store i32 2, ptr %62, align 4
  br label %71

63:                                               ; preds = %42
  %64 = load ptr, ptr %11, align 8
  %65 = getelementptr inbounds %class.BoolNode, ptr %64, i32 0, i32 1
  %66 = getelementptr inbounds %struct.BoolTest, ptr %65, i32 0, i32 0
  %67 = load i32, ptr %66, align 4
  %68 = icmp ne i32 %67, 3
  br i1 %68, label %69, label %70

69:                                               ; preds = %63
  store ptr null, ptr %5, align 8
  br label %95

70:                                               ; preds = %63
  br label %71

71:                                               ; preds = %70, %55
  %72 = load ptr, ptr %8, align 8
  %73 = load ptr, ptr %72, align 8
  %74 = call noundef zeroext i1 @_ZNK4Node6is_topEv(ptr noundef nonnull align 8 dereferenceable(52) %73)
  br i1 %74, label %75, label %76

75:                                               ; preds = %71
  store ptr null, ptr %5, align 8
  br label %95

76:                                               ; preds = %71
  %77 = load ptr, ptr %9, align 8
  %78 = load ptr, ptr %77, align 8
  %79 = load ptr, ptr %78, align 8
  %80 = getelementptr inbounds ptr, ptr %79, i64 0
  %81 = load ptr, ptr %80, align 8
  %82 = call noundef i32 %81(ptr noundef nonnull align 8 dereferenceable(52) %78)
  %83 = icmp ne i32 %82, 200
  br i1 %83, label %84, label %87

84:                                               ; preds = %76
  %85 = call noundef zeroext i1 @_ZNK4Node13is_RangeCheckEv(ptr noundef nonnull align 8 dereferenceable(52) %14)
  br i1 %85, label %87, label %86

86:                                               ; preds = %84
  store ptr null, ptr %5, align 8
  br label %95

87:                                               ; preds = %84, %76
  %88 = load ptr, ptr %7, align 8
  %89 = load i32, ptr %88, align 4
  %90 = icmp eq i32 %89, 2
  %91 = select i1 %90, i1 true, i1 false
  %92 = zext i1 %91 to i32
  %93 = call noundef ptr @_ZNK9MultiNode16proj_out_or_nullEj(ptr noundef nonnull align 8 dereferenceable(52) %14, i32 noundef %92)
  store ptr %93, ptr %13, align 8
  %94 = load ptr, ptr %13, align 8
  store ptr %94, ptr %5, align 8
  br label %95

95:                                               ; preds = %87, %86, %75, %69, %41, %33, %25, %17
  %96 = load ptr, ptr %5, align 8
  ret ptr %96
}