; Function Attrs: mustprogress nounwind uwtable
define hidden noundef ptr @_ZN6IfNode21range_check_trap_projERiRP4NodeS3_(ptr noundef nonnull align 8 dereferenceable(60) %0, ptr nocapture noundef nonnull align 4 dereferenceable(4) %1, ptr nocapture noundef nonnull align 8 dereferenceable(8) %2, ptr nocapture noundef nonnull align 8 dereferenceable(8) %3) local_unnamed_addr #0 align 2 {
  %5 = getelementptr inbounds i8, ptr %0, i64 32
  %6 = load i32, ptr %5, align 8
  %.not = icmp eq i32 %6, 2
  br i1 %.not, label %7, label %65

7:                                                ; preds = %4
  %8 = getelementptr inbounds i8, ptr %0, i64 8
  %9 = load ptr, ptr %8, align 8
  %10 = getelementptr inbounds i8, ptr %9, i64 8
  %11 = load ptr, ptr %10, align 8
  %12 = icmp eq ptr %11, null
  br i1 %12, label %65, label %13

13:                                               ; preds = %7
  %14 = getelementptr inbounds i8, ptr %11, i64 44
  %15 = load i32, ptr %14, align 4
  %16 = and i32 %15, 511
  %17 = icmp eq i32 %16, 256
  br i1 %17, label %18, label %65

18:                                               ; preds = %13
  %19 = getelementptr inbounds i8, ptr %11, i64 8
  %20 = load ptr, ptr %19, align 8
  %21 = getelementptr inbounds i8, ptr %20, i64 8
  %22 = load ptr, ptr %21, align 8
  %23 = icmp eq ptr %22, null
  br i1 %23, label %65, label %24

24:                                               ; preds = %18
  %25 = load ptr, ptr %22, align 8
  %26 = load ptr, ptr %25, align 8
  %27 = tail call noundef i32 %26(ptr noundef nonnull align 8 dereferenceable(52) %22) #8
  %.not27 = icmp eq i32 %27, 86
  br i1 %.not27, label %28, label %65

28:                                               ; preds = %24
  %29 = getelementptr inbounds i8, ptr %22, i64 8
  %30 = load ptr, ptr %29, align 8
  %31 = getelementptr inbounds i8, ptr %30, i64 8
  %32 = load ptr, ptr %31, align 8
  store ptr %32, ptr %2, align 8
  %33 = load ptr, ptr %29, align 8
  %34 = getelementptr inbounds i8, ptr %33, i64 16
  %35 = load ptr, ptr %34, align 8
  store ptr %35, ptr %3, align 8
  store i32 1, ptr %1, align 4
  %36 = getelementptr inbounds i8, ptr %11, i64 52
  %37 = load i32, ptr %36, align 4
  switch i32 %37, label %65 [
    i32 5, label %38
    i32 3, label %45
  ]

38:                                               ; preds = %28
  %39 = load ptr, ptr %29, align 8
  %40 = getelementptr inbounds i8, ptr %39, i64 16
  %41 = load ptr, ptr %40, align 8
  store ptr %41, ptr %2, align 8
  %42 = load ptr, ptr %29, align 8
  %43 = getelementptr inbounds i8, ptr %42, i64 8
  %44 = load ptr, ptr %43, align 8
  store ptr %44, ptr %3, align 8
  store i32 2, ptr %1, align 4
  br label %45

45:                                               ; preds = %28, %38
  %46 = load ptr, ptr %2, align 8
  %47 = getelementptr inbounds i8, ptr %46, i64 16
  %48 = load ptr, ptr %47, align 8
  %49 = icmp eq ptr %48, null
  br i1 %49, label %65, label %50

50:                                               ; preds = %45
  %51 = load ptr, ptr %3, align 8
  %52 = load ptr, ptr %51, align 8
  %53 = load ptr, ptr %52, align 8
  %54 = tail call noundef i32 %53(ptr noundef nonnull align 8 dereferenceable(52) %51) #8
  %.not29 = icmp eq i32 %54, 200
  br i1 %.not29, label %60, label %55

55:                                               ; preds = %50
  %56 = getelementptr inbounds i8, ptr %0, i64 44
  %57 = load i32, ptr %56, align 4
  %58 = and i32 %57, 127
  %59 = icmp eq i32 %58, 85
  br i1 %59, label %60, label %65

60:                                               ; preds = %55, %50
  %61 = load i32, ptr %1, align 4
  %62 = icmp eq i32 %61, 2
  %63 = zext i1 %62 to i32
  %64 = tail call noundef ptr @_ZNK9MultiNode16proj_out_or_nullEj(ptr noundef nonnull align 8 dereferenceable(52) %0, i32 noundef %63) #8
  br label %65

65:                                               ; preds = %55, %45, %28, %24, %18, %7, %13, %4, %60
  %.0 = phi ptr [ %64, %60 ], [ null, %4 ], [ null, %13 ], [ null, %7 ], [ null, %18 ], [ null, %24 ], [ null, %28 ], [ null, %45 ], [ null, %55 ]
  ret ptr %.0
}